(lp0
F0.050698438663297485
aF0.07479204645881864
aF0.08213908403361067
aF0.05207271739904727
aF0.3093569438594157
aF0.07022626680469614
aF0.05346273289301228
aF0.063501544561085
aF0.07027595894087478
aF0.09232354943895513
aF0.07158229167455046
aF0.04082908310604425
aF0.050157175204367604
aF0.03397523402506125
aF0.09200664380747423
aF0.04825707940690799
aF0.059611419501696995
aF0.050700245322431815
aF0.03890821623115908
aF0.09084192961505595
aF0.04378370212980388
aF0.057498888816807425
aF0.03582567181707016
aF0.06707003869592526
aF0.05473810300872766
aF0.2379029302148432
aF0.2612949237452364
aF0.3918185898444402
aF0.37365325147155853
aF0.49047822636969235
aF0.12134680112857235
aF0.38935385302103037
aF0.48337894404643783
aF0.11436701538085947
aF0.5306145855890109
aF0.16275065388655915
aF0.37616188115209304
aF0.5150234537452311
aF0.043571195026396795
aF-0.04354221641913015
aF-0.043742347767456835
aF0.006461146740186065
aF0.08234241392811463
aF0.12319279055116997
aF0.10306057876507028
aF0.11668264638766974
aF0.05700564238840076
aF0.05841190861205241
aF0.0618132552611654
aF0.10787719481413845
aF0.044435068252840645
aF-0.0012336416530332928
aF0.06419829915673762
aF0.11534446886048508
aF0.07312445262107366
aF0.10796202321178794
a.